target datalayout = "e-m:e-p270:32:32-p271:32:32-p272:64:64-i64:64-i128:128-f80:128-n8:16:32:64-S128"
target triple = "x86_64-pc-linux-gnu"

; Function Attrs: nounwind uwtable
define internal i32 @skip_past_nul(i32 noundef %0) #0 {
  %2 = alloca i32, align 4
  %3 = alloca i32, align 4
  %4 = alloca ptr, align 8
  %5 = alloca [128 x i8], align 16
  %6 = alloca i64, align 8
  store i32 %0, ptr %3, align 4
  br label %7

7:                                                ; preds = %38, %1
  %8 = load i32, ptr %3, align 4
  %9 = getelementptr inbounds [128 x i8], ptr %5, i64 0, i64 0
  %10 = call i64 @cli_readn(i32 noundef %8, ptr noundef %9, i64 noundef 128)
  store i64 %10, ptr %6, align 8
  %11 = load i64, ptr %6, align 8
  %12 = icmp eq i64 %11, 0
  br i1 %12, label %16, label %13

13:                                               ; preds = %7
  %14 = load i64, ptr %6, align 8
  %15 = icmp eq i64 %14, -1
  br i1 %15, label %16, label %17

16:                                               ; preds = %13, %7
  store i32 0, ptr %2, align 4
  br label %39

17:                                               ; preds = %13
  %18 = getelementptr inbounds [128 x i8], ptr %5, i64 0, i64 0
  %19 = load i64, ptr %6, align 8
  %20 = call ptr @memchr(ptr noundef %18, i32 noundef 0, i64 noundef %19) #9
  store ptr %20, ptr %4, align 8
  %21 = load ptr, ptr %4, align 8
  %22 = icmp ne ptr %21, null
  br i1 %22, label %23, label %37

23:                                               ; preds = %17
  %24 = load i32, ptr %3, align 4
  %25 = load ptr, ptr %4, align 8
  %26 = getelementptr inbounds [128 x i8], ptr %5, i64 0, i64 0
  %27 = ptrtoint ptr %25 to i64
  %28 = ptrtoint ptr %26 to i64
  %29 = sub i64 %27, %28
  %30 = add nsw i64 1, %29
  %31 = load i64, ptr %6, align 8
  %32 = sub nsw i64 %30, %31
  %33 = call i64 @lseek(i32 noundef %24, i64 noundef %32, i32 noundef 1) #8
  %34 = icmp slt i64 %33, 0
  br i1 %34, label %35, label %36

35:                                               ; preds = %23
  store i32 0, ptr %2, align 4
  br label %39

36:                                               ; preds = %23
  store i32 1, ptr %2, align 4
  br label %39

37:                                               ; preds = %17
  br label %38

38:                                               ; preds = %37
  br i1 true, label %7, label %39

39:                                               ; preds = %38, %36, %35, %16
  %40 = load i32, ptr %2, align 4
  ret i32 %40
}