; Function Attrs: nounwind uwtable
define internal fastcc i32 @skip_past_nul(i32 noundef %0) unnamed_addr #0 {
  %2 = alloca [128 x i8], align 16
  br label %3

3:                                                ; preds = %6, %1
  %4 = call i64 @cli_readn(i32 noundef %0, ptr noundef nonnull %2, i64 noundef 128) #17
  %5 = add i64 %4, 1
  %or.cond = icmp ult i64 %5, 2
  br i1 %or.cond, label %.loopexit, label %6

6:                                                ; preds = %3
  %7 = call ptr @memchr(ptr noundef nonnull %2, i32 noundef 0, i64 noundef %4) #18
  %.not = icmp eq ptr %7, null
  br i1 %.not, label %3, label %8

8:                                                ; preds = %6
  %9 = ptrtoint ptr %7 to i64
  %10 = ptrtoint ptr %2 to i64
  %11 = add i64 %4, %10
  %reass.sub = sub i64 %9, %11
  %12 = add i64 %reass.sub, 1
  %13 = call i64 @lseek(i32 noundef %0, i64 noundef %12, i32 noundef 1) #17
  %14 = icmp sgt i64 %13, -1
  %. = zext i1 %14 to i32
  br label %.loopexit

.loopexit:                                        ; preds = %3, %8
  %.0 = phi i32 [ %., %8 ], [ 0, %3 ]
  ret i32 %.0
}